; Function Attrs: nofree norecurse nosync nounwind memory(argmem: readwrite) uwtable
define internal void @YuvToArgbRow(ptr noalias noundef readonly captures(none) %0, ptr noalias noundef readonly captures(none) %1, ptr noalias noundef readonly captures(none) %2, ptr noalias noundef writeonly captures(address) %3, i32 noundef %4) #2 {
  %6 = shl i32 %4, 2
  %7 = and i32 %6, -8
  %8 = sext i32 %7 to i64
  %9 = getelementptr inbounds i8, ptr %3, i64 %8
  %.not26 = icmp eq i32 %7, 0
  br i1 %.not26, label %._crit_edge, label %.lr.ph

.lr.ph:                                           ; preds = %5, %.lr.ph
  %.030 = phi ptr [ %87, %.lr.ph ], [ %0, %5 ]
  %.02029 = phi ptr [ %88, %.lr.ph ], [ %1, %5 ]
  %.02128 = phi ptr [ %90, %.lr.ph ], [ %3, %5 ]
  %.02227 = phi ptr [ %89, %.lr.ph ], [ %2, %5 ]
  %10 = load i8, ptr %.030, align 1, !tbaa !11
  %11 = load i8, ptr %.02029, align 1, !tbaa !11
  %12 = load i8, ptr %.02227, align 1, !tbaa !11
  store i8 -1, ptr %.02128, align 1, !tbaa !11
  %13 = zext i8 %10 to i32
  %14 = zext i8 %11 to i32
  %15 = zext i8 %12 to i32
  %16 = getelementptr inbounds nuw i8, ptr %.02128, i64 1
  %17 = mul nuw nsw i32 %13, 19077
  %18 = lshr i32 %17, 8
  %19 = mul nuw nsw i32 %15, 26149
  %20 = lshr i32 %19, 8
  %21 = add nuw nsw i32 %20, %18
  %22 = add nsw i32 %21, -14234
  %23 = icmp ult i32 %22, 16384
  %24 = lshr i32 %22, 6
  %25 = icmp samesign ult i32 %21, 14234
  %26 = select i1 %25, i32 0, i32 255
  %27 = select i1 %23, i32 %24, i32 %26
  %28 = trunc i32 %27 to i8
  store i8 %28, ptr %16, align 1, !tbaa !11
  %29 = mul nuw nsw i32 %14, 6419
  %30 = lshr i32 %29, 8
  %31 = mul nuw nsw i32 %15, 13320
  %32 = lshr i32 %31, 8
  %33 = add nuw nsw i32 %32, %30
  %34 = sub nsw i32 %18, %33
  %35 = add nsw i32 %34, 8708
  %36 = icmp ult i32 %35, 16384
  %37 = lshr i32 %35, 6
  %38 = icmp slt i32 %34, -8708
  %39 = select i1 %38, i32 0, i32 255
  %40 = select i1 %36, i32 %37, i32 %39
  %41 = trunc i32 %40 to i8
  %42 = getelementptr inbounds nuw i8, ptr %.02128, i64 2
  store i8 %41, ptr %42, align 1, !tbaa !11
  %43 = mul nuw nsw i32 %14, 33050
  %44 = lshr i32 %43, 8
  %45 = add nuw nsw i32 %44, %18
  %46 = add nsw i32 %45, -17685
  %47 = icmp ult i32 %46, 16384
  %48 = lshr i32 %46, 6
  %49 = icmp samesign ult i32 %45, 17685
  %50 = select i1 %49, i32 0, i32 255
  %51 = select i1 %47, i32 %48, i32 %50
  %52 = trunc i32 %51 to i8
  %53 = getelementptr inbounds nuw i8, ptr %.02128, i64 3
  store i8 %52, ptr %53, align 1, !tbaa !11
  %54 = getelementptr inbounds nuw i8, ptr %.030, i64 1
  %55 = load i8, ptr %54, align 1, !tbaa !11
  %56 = getelementptr inbounds nuw i8, ptr %.02128, i64 4
  store i8 -1, ptr %56, align 1, !tbaa !11
  %57 = zext i8 %55 to i32
  %58 = getelementptr inbounds nuw i8, ptr %.02128, i64 5
  %59 = mul nuw nsw i32 %57, 19077
  %60 = lshr i32 %59, 8
  %61 = add nuw nsw i32 %60, %20
  %62 = add nsw i32 %61, -14234
  %63 = icmp ult i32 %62, 16384
  %64 = lshr i32 %62, 6
  %65 = icmp samesign ult i32 %61, 14234
  %66 = select i1 %65, i32 0, i32 255
  %67 = select i1 %63, i32 %64, i32 %66
  %68 = trunc i32 %67 to i8
  store i8 %68, ptr %58, align 1, !tbaa !11
  %69 = sub nsw i32 %60, %33
  %70 = add nsw i32 %69, 8708
  %71 = icmp ult i32 %70, 16384
  %72 = lshr i32 %70, 6
  %73 = icmp slt i32 %69, -8708
  %74 = select i1 %73, i32 0, i32 255
  %75 = select i1 %71, i32 %72, i32 %74
  %76 = trunc i32 %75 to i8
  %77 = getelementptr inbounds nuw i8, ptr %.02128, i64 6
  store i8 %76, ptr %77, align 1, !tbaa !11
  %78 = add nuw nsw i32 %60, %44
  %79 = add nsw i32 %78, -17685
  %80 = icmp ult i32 %79, 16384
  %81 = lshr i32 %79, 6
  %82 = icmp samesign ult i32 %78, 17685
  %83 = select i1 %82, i32 0, i32 255
  %84 = select i1 %80, i32 %81, i32 %83
  %85 = trunc i32 %84 to i8
  %86 = getelementptr inbounds nuw i8, ptr %.02128, i64 7
  store i8 %85, ptr %86, align 1, !tbaa !11
  %87 = getelementptr inbounds nuw i8, ptr %.030, i64 2
  %88 = getelementptr inbounds nuw i8, ptr %.02029, i64 1
  %89 = getelementptr inbounds nuw i8, ptr %.02227, i64 1
  %90 = getelementptr inbounds nuw i8, ptr %.02128, i64 8
  %.not = icmp eq ptr %90, %9
  br i1 %.not, label %._crit_edge, label %.lr.ph, !llvm.loop !20

._crit_edge:                                      ; preds = %.lr.ph, %5
  %.022.lcssa = phi ptr [ %2, %5 ], [ %89, %.lr.ph ]
  %.021.lcssa = phi ptr [ %3, %5 ], [ %9, %.lr.ph ]
  %.020.lcssa = phi ptr [ %1, %5 ], [ %88, %.lr.ph ]
  %.0.lcssa = phi ptr [ %0, %5 ], [ %87, %.lr.ph ]
  %91 = and i32 %4, 1
  %.not23 = icmp eq i32 %91, 0
  br i1 %.not23, label %137, label %92

92:                                               ; preds = %._crit_edge
  %93 = load i8, ptr %.0.lcssa, align 1, !tbaa !11
  %94 = load i8, ptr %.020.lcssa, align 1, !tbaa !11
  %95 = load i8, ptr %.022.lcssa, align 1, !tbaa !11
  store i8 -1, ptr %.021.lcssa, align 1, !tbaa !11
  %96 = zext i8 %93 to i32
  %97 = zext i8 %94 to i32
  %98 = zext i8 %95 to i32
  %99 = getelementptr inbounds nuw i8, ptr %.021.lcssa, i64 1
  %100 = mul nuw nsw i32 %96, 19077
  %101 = lshr i32 %100, 8
  %102 = mul nuw nsw i32 %98, 26149
  %103 = lshr i32 %102, 8
  %104 = add nuw nsw i32 %103, %101
  %105 = add nsw i32 %104, -14234
  %106 = icmp ult i32 %105, 16384
  %107 = lshr i32 %105, 6
  %108 = icmp samesign ult i32 %104, 14234
  %109 = select i1 %108, i32 0, i32 255
  %110 = select i1 %106, i32 %107, i32 %109
  %111 = trunc i32 %110 to i8
  store i8 %111, ptr %99, align 1, !tbaa !11
  %112 = mul nuw nsw i32 %97, 6419
  %113 = lshr i32 %112, 8
  %114 = mul nuw nsw i32 %98, 13320
  %115 = lshr i32 %114, 8
  %116 = add nuw nsw i32 %113, %115
  %117 = sub nsw i32 %101, %116
  %118 = add nsw i32 %117, 8708
  %119 = icmp ult i32 %118, 16384
  %120 = lshr i32 %118, 6
  %121 = icmp slt i32 %117, -8708
  %122 = select i1 %121, i32 0, i32 255
  %123 = select i1 %119, i32 %120, i32 %122
  %124 = trunc i32 %123 to i8
  %125 = getelementptr inbounds nuw i8, ptr %.021.lcssa, i64 2
  store i8 %124, ptr %125, align 1, !tbaa !11
  %126 = mul nuw nsw i32 %97, 33050
  %127 = lshr i32 %126, 8
  %128 = add nuw nsw i32 %127, %101
  %129 = add nsw i32 %128, -17685
  %130 = icmp ult i32 %129, 16384
  %131 = lshr i32 %129, 6
  %132 = icmp samesign ult i32 %128, 17685
  %133 = select i1 %132, i32 0, i32 255
  %134 = select i1 %130, i32 %131, i32 %133
  %135 = trunc i32 %134 to i8
  %136 = getelementptr inbounds nuw i8, ptr %.021.lcssa, i64 3
  store i8 %135, ptr %136, align 1, !tbaa !11
  br label %137

137:                                              ; preds = %92, %._crit_edge
  ret void
}